target datalayout = "e-m:e-p270:32:32-p271:32:32-p272:64:64-i64:64-i128:128-f80:128-n8:16:32:64-S128"
target triple = "x86_64-pc-linux-gnu"

%"struct.std::pair" = type { i64, %"struct.(anonymous namespace)::ArgPart" }
%"struct.(anonymous namespace)::ArgPart" = type { ptr, %"struct.llvm::Align", ptr }
%"struct.llvm::Align" = type { i8 }
%"class.llvm::SmallDenseMap.162" = type { i32, i32, %"struct.llvm::AlignedCharArrayUnion.164" }
%"struct.llvm::AlignedCharArrayUnion.164" = type { [128 x i8] }
%"struct.llvm::SmallDenseMap<long, (anonymous namespace)::ArgPart>::LargeRep" = type { ptr, i32 }
%"struct.llvm::detail::DenseMapPair.202" = type { %"struct.std::pair" }
%"struct.llvm::AlignedCharArrayUnion.208" = type { [128 x i8] }

; Function Attrs: mustprogress nounwind uwtable
define internal noundef ptr @_ZNK4llvm13SmallDenseMapIlN12_GLOBAL__N_17ArgPartELj4ENS_12DenseMapInfoIlvEENS_6detail12DenseMapPairIlS2_EEE16getInlineBucketsEv(ptr noundef nonnull align 8 dereferenceable(136) %0) #1 align 2 {
  %2 = alloca ptr, align 8
  store ptr %0, ptr %2, align 8
  %3 = load ptr, ptr %2, align 8
  %4 = getelementptr inbounds nuw %"class.llvm::SmallDenseMap.162", ptr %3, i32 0, i32 2
  ret ptr %4
}

; Function Attrs: mustprogress nounwind uwtable
define internal noundef ptr @_ZNK4llvm13SmallDenseMapIlN12_GLOBAL__N_17ArgPartELj4ENS_12DenseMapInfoIlvEENS_6detail12DenseMapPairIlS2_EEE11getLargeRepEv(ptr noundef nonnull align 8 dereferenceable(136) %0) #1 align 2 {
  %2 = alloca ptr, align 8
  store ptr %0, ptr %2, align 8
  %3 = load ptr, ptr %2, align 8
  %4 = getelementptr inbounds nuw %"class.llvm::SmallDenseMap.162", ptr %3, i32 0, i32 2
  ret ptr %4
}

; Function Attrs: mustprogress nounwind uwtable
define internal noundef ptr @_ZNK4llvm13SmallDenseMapIlN12_GLOBAL__N_17ArgPartELj4ENS_12DenseMapInfoIlvEENS_6detail12DenseMapPairIlS2_EEE10getBucketsEv(ptr noundef nonnull align 8 dereferenceable(136) %0) #1 align 2 {
  %2 = alloca ptr, align 8
  store ptr %0, ptr %2, align 8
  %3 = load ptr, ptr %2, align 8
  %4 = load i32, ptr %3, align 8
  %5 = and i32 %4, 1
  %6 = icmp ne i32 %5, 0
  br i1 %6, label %7, label %9

7:                                                ; preds = %1
  %8 = call noundef ptr @_ZNK4llvm13SmallDenseMapIlN12_GLOBAL__N_17ArgPartELj4ENS_12DenseMapInfoIlvEENS_6detail12DenseMapPairIlS2_EEE16getInlineBucketsEv(ptr noundef nonnull align 8 dereferenceable(136) %3)
  br label %13

9:                                                ; preds = %1
  %10 = call noundef ptr @_ZNK4llvm13SmallDenseMapIlN12_GLOBAL__N_17ArgPartELj4ENS_12DenseMapInfoIlvEENS_6detail12DenseMapPairIlS2_EEE11getLargeRepEv(ptr noundef nonnull align 8 dereferenceable(136) %3)
  %11 = getelementptr inbounds nuw %"struct.llvm::SmallDenseMap<long, (anonymous namespace)::ArgPart>::LargeRep", ptr %10, i32 0, i32 0
  %12 = load ptr, ptr %11, align 8
  br label %13

13:                                               ; preds = %9, %7
  %14 = phi ptr [ %8, %7 ], [ %12, %9 ]
  ret ptr %14
}

; Function Attrs: mustprogress nounwind uwtable
define linkonce_odr hidden noundef i64 @_ZN4llvm12DenseMapInfoIlvE15getTombstoneKeyEv() #1 comdat align 2 {
  %1 = call noundef i64 @_ZN4llvm12DenseMapInfoIlvE11getEmptyKeyEv()
  %2 = sub nsw i64 %1, 1
  ret i64 %2
}

; Function Attrs: mustprogress nounwind uwtable
define linkonce_odr hidden noundef i64 @_ZN4llvm12DenseMapInfoIlvE11getEmptyKeyEv() #1 comdat align 2 {
  ret i64 9223372036854775807
}

; Function Attrs: mustprogress nounwind uwtable
define internal { ptr, i32 } @_ZN4llvm13SmallDenseMapIlN12_GLOBAL__N_17ArgPartELj4ENS_12DenseMapInfoIlvEENS_6detail12DenseMapPairIlS2_EEE15allocateBucketsEj(ptr noundef nonnull align 8 dereferenceable(136) %0, i32 noundef %1) #1 align 2 {
  %3 = alloca %"struct.llvm::SmallDenseMap<long, (anonymous namespace)::ArgPart>::LargeRep", align 8
  %4 = alloca ptr, align 8
  %5 = alloca i32, align 4
  store ptr %0, ptr %4, align 8
  store i32 %1, ptr %5, align 4
  %6 = getelementptr inbounds nuw %"struct.llvm::SmallDenseMap<long, (anonymous namespace)::ArgPart>::LargeRep", ptr %3, i32 0, i32 0
  %7 = load i32, ptr %5, align 4
  %8 = zext i32 %7 to i64
  %9 = mul i64 32, %8
  %10 = call noalias noundef nonnull ptr @_ZN4llvm15allocate_bufferEmm(i64 noundef %9, i64 noundef 8)
  store ptr %10, ptr %6, align 8
  %11 = getelementptr inbounds nuw %"struct.llvm::SmallDenseMap<long, (anonymous namespace)::ArgPart>::LargeRep", ptr %3, i32 0, i32 1
  %12 = load i32, ptr %5, align 4
  store i32 %12, ptr %11, align 8
  %13 = load { ptr, i32 }, ptr %3, align 8
  ret { ptr, i32 } %13
}

; Function Attrs: mustprogress nounwind uwtable
define internal noundef ptr @_ZN4llvm13SmallDenseMapIlN12_GLOBAL__N_17ArgPartELj4ENS_12DenseMapInfoIlvEENS_6detail12DenseMapPairIlS2_EEE11getLargeRepEv(ptr noundef nonnull align 8 dereferenceable(136) %0) #1 align 2 {
  %2 = alloca ptr, align 8
  store ptr %0, ptr %2, align 8
  %3 = load ptr, ptr %2, align 8
  %4 = call noundef ptr @_ZNK4llvm13SmallDenseMapIlN12_GLOBAL__N_17ArgPartELj4ENS_12DenseMapInfoIlvEENS_6detail12DenseMapPairIlS2_EEE11getLargeRepEv(ptr noundef nonnull align 8 dereferenceable(136) %3)
  ret ptr %4
}

; Function Attrs: mustprogress nounwind uwtable
define internal noundef nonnull align 8 dereferenceable(24) ptr @_ZN4llvm6detail12DenseMapPairIlN12_GLOBAL__N_17ArgPartEE9getSecondEv(ptr noundef nonnull align 8 dereferenceable(32) %0) #1 align 2 {
  %2 = alloca ptr, align 8
  store ptr %0, ptr %2, align 8
  %3 = load ptr, ptr %2, align 8
  %4 = getelementptr inbounds nuw %"struct.std::pair", ptr %3, i32 0, i32 1
  ret ptr %4
}

; Function Attrs: mustprogress nounwind uwtable
define linkonce_odr hidden noundef zeroext i1 @_ZN4llvm12DenseMapInfoIlvE7isEqualERKlS3_(ptr noundef nonnull align 8 dereferenceable(8) %0, ptr noundef nonnull align 8 dereferenceable(8) %1) #1 comdat align 2 {
  %3 = alloca ptr, align 8
  %4 = alloca ptr, align 8
  store ptr %0, ptr %3, align 8
  store ptr %1, ptr %4, align 8
  %5 = load ptr, ptr %3, align 8
  %6 = load i64, ptr %5, align 8
  %7 = load ptr, ptr %4, align 8
  %8 = load i64, ptr %7, align 8
  %9 = icmp eq i64 %6, %8
  ret i1 %9
}

; Function Attrs: mustprogress nounwind uwtable
define internal noundef nonnull align 8 dereferenceable(8) ptr @_ZN4llvm6detail12DenseMapPairIlN12_GLOBAL__N_17ArgPartEE8getFirstEv(ptr noundef nonnull align 8 dereferenceable(32) %0) #1 align 2 {
  %2 = alloca ptr, align 8
  store ptr %0, ptr %2, align 8
  %3 = load ptr, ptr %2, align 8
  %4 = getelementptr inbounds nuw %"struct.std::pair", ptr %3, i32 0, i32 0
  ret ptr %4
}

; Function Attrs: mustprogress nounwind uwtable
define internal noundef ptr @_ZN4llvm13SmallDenseMapIlN12_GLOBAL__N_17ArgPartELj4ENS_12DenseMapInfoIlvEENS_6detail12DenseMapPairIlS2_EEE10getBucketsEv(ptr noundef nonnull align 8 dereferenceable(136) %0) #1 align 2 {
  %2 = alloca ptr, align 8
  store ptr %0, ptr %2, align 8
  %3 = load ptr, ptr %2, align 8
  %4 = call noundef ptr @_ZNK4llvm13SmallDenseMapIlN12_GLOBAL__N_17ArgPartELj4ENS_12DenseMapInfoIlvEENS_6detail12DenseMapPairIlS2_EEE10getBucketsEv(ptr noundef nonnull align 8 dereferenceable(136) %3)
  ret ptr %4
}

; Function Attrs: mustprogress nounwind uwtable
define internal noundef i64 @_ZN4llvm12DenseMapBaseINS_13SmallDenseMapIlN12_GLOBAL__N_17ArgPartELj4ENS_12DenseMapInfoIlvEENS_6detail12DenseMapPairIlS3_EEEElS3_S5_S8_E15getTombstoneKeyEv() #1 align 2 {
  %1 = call noundef i64 @_ZN4llvm12DenseMapInfoIlvE15getTombstoneKeyEv()
  ret i64 %1
}

; Function Attrs: mustprogress nounwind uwtable
define internal noundef i64 @_ZN4llvm12DenseMapBaseINS_13SmallDenseMapIlN12_GLOBAL__N_17ArgPartELj4ENS_12DenseMapInfoIlvEENS_6detail12DenseMapPairIlS3_EEEElS3_S5_S8_E11getEmptyKeyEv() #1 align 2 {
  %1 = call noundef i64 @_ZN4llvm12DenseMapInfoIlvE11getEmptyKeyEv()
  ret i64 %1
}

; Function Attrs: mustprogress nounwind uwtable
define linkonce_odr noundef nonnull align 4 dereferenceable(4) ptr @_ZSt3maxIjERKT_S2_S2_(ptr noundef nonnull align 4 dereferenceable(4) %0, ptr noundef nonnull align 4 dereferenceable(4) %1) #1 comdat {
  %3 = alloca ptr, align 8
  %4 = alloca ptr, align 8
  %5 = alloca ptr, align 8
  store ptr %0, ptr %4, align 8
  store ptr %1, ptr %5, align 8
  %6 = load ptr, ptr %4, align 8
  %7 = load i32, ptr %6, align 4
  %8 = load ptr, ptr %5, align 8
  %9 = load i32, ptr %8, align 4
  %10 = icmp ult i32 %7, %9
  br i1 %10, label %11, label %13

11:                                               ; preds = %2
  %12 = load ptr, ptr %5, align 8
  store ptr %12, ptr %3, align 8
  br label %15

13:                                               ; preds = %2
  %14 = load ptr, ptr %4, align 8
  store ptr %14, ptr %3, align 8
  br label %15

15:                                               ; preds = %13, %11
  %16 = load ptr, ptr %3, align 8
  ret ptr %16
}

; Function Attrs: mustprogress nounwind uwtable
define linkonce_odr hidden noundef i64 @_ZN4llvm12NextPowerOf2Em(i64 noundef %0) #1 comdat {
  %2 = alloca i64, align 8
  store i64 %0, ptr %2, align 8
  %3 = load i64, ptr %2, align 8
  %4 = lshr i64 %3, 1
  %5 = load i64, ptr %2, align 8
  %6 = or i64 %5, %4
  store i64 %6, ptr %2, align 8
  %7 = load i64, ptr %2, align 8
  %8 = lshr i64 %7, 2
  %9 = load i64, ptr %2, align 8
  %10 = or i64 %9, %8
  store i64 %10, ptr %2, align 8
  %11 = load i64, ptr %2, align 8
  %12 = lshr i64 %11, 4
  %13 = load i64, ptr %2, align 8
  %14 = or i64 %13, %12
  store i64 %14, ptr %2, align 8
  %15 = load i64, ptr %2, align 8
  %16 = lshr i64 %15, 8
  %17 = load i64, ptr %2, align 8
  %18 = or i64 %17, %16
  store i64 %18, ptr %2, align 8
  %19 = load i64, ptr %2, align 8
  %20 = lshr i64 %19, 16
  %21 = load i64, ptr %2, align 8
  %22 = or i64 %21, %20
  store i64 %22, ptr %2, align 8
  %23 = load i64, ptr %2, align 8
  %24 = lshr i64 %23, 32
  %25 = load i64, ptr %2, align 8
  %26 = or i64 %25, %24
  store i64 %26, ptr %2, align 8
  %27 = load i64, ptr %2, align 8
  %28 = add i64 %27, 1
  ret i64 %28
}

; Function Attrs: mustprogress nounwind uwtable
define internal void @_ZN4llvm13SmallDenseMapIlN12_GLOBAL__N_17ArgPartELj4ENS_12DenseMapInfoIlvEENS_6detail12DenseMapPairIlS2_EEE4growEj(ptr noundef nonnull align 8 dereferenceable(136) %0, i32 noundef %1) #1 align 2 {
  %3 = alloca ptr, align 8
  %4 = alloca i32, align 4
  %5 = alloca i32, align 4
  %6 = alloca i32, align 4
  %7 = alloca %"struct.llvm::AlignedCharArrayUnion.208", align 8
  %8 = alloca ptr, align 8
  %9 = alloca ptr, align 8
  %10 = alloca i64, align 8
  %11 = alloca i64, align 8
  %12 = alloca ptr, align 8
  %13 = alloca ptr, align 8
  %14 = alloca %"struct.llvm::SmallDenseMap<long, (anonymous namespace)::ArgPart>::LargeRep", align 8
  store ptr %0, ptr %3, align 8
  store i32 %1, ptr %4, align 4
  %15 = load ptr, ptr %3, align 8
  %16 = load i32, ptr %4, align 4
  %17 = icmp ugt i32 %16, 4
  br i1 %17, label %18, label %26

18:                                               ; preds = %2
  store i32 64, ptr %5, align 4
  %19 = load i32, ptr %4, align 4
  %20 = sub i32 %19, 1
  %21 = zext i32 %20 to i64
  %22 = call noundef i64 @_ZN4llvm12NextPowerOf2Em(i64 noundef %21)
  %23 = trunc i64 %22 to i32
  store i32 %23, ptr %6, align 4
  %24 = call noundef nonnull align 4 dereferenceable(4) ptr @_ZSt3maxIjERKT_S2_S2_(ptr noundef nonnull align 4 dereferenceable(4) %5, ptr noundef nonnull align 4 dereferenceable(4) %6)
  %25 = load i32, ptr %24, align 4
  store i32 %25, ptr %4, align 4
  br label %26

26:                                               ; preds = %18, %2
  %27 = load i32, ptr %15, align 8
  %28 = and i32 %27, 1
  %29 = icmp ne i32 %28, 0
  br i1 %29, label %30, label %86

30:                                               ; preds = %26
  store ptr %7, ptr %8, align 8
  %31 = load ptr, ptr %8, align 8
  store ptr %31, ptr %9, align 8
  %32 = call noundef i64 @_ZN4llvm12DenseMapBaseINS_13SmallDenseMapIlN12_GLOBAL__N_17ArgPartELj4ENS_12DenseMapInfoIlvEENS_6detail12DenseMapPairIlS3_EEEElS3_S5_S8_E11getEmptyKeyEv()
  store i64 %32, ptr %10, align 8
  %33 = call noundef i64 @_ZN4llvm12DenseMapBaseINS_13SmallDenseMapIlN12_GLOBAL__N_17ArgPartELj4ENS_12DenseMapInfoIlvEENS_6detail12DenseMapPairIlS3_EEEElS3_S5_S8_E15getTombstoneKeyEv()
  store i64 %33, ptr %11, align 8
  %34 = call noundef ptr @_ZN4llvm13SmallDenseMapIlN12_GLOBAL__N_17ArgPartELj4ENS_12DenseMapInfoIlvEENS_6detail12DenseMapPairIlS2_EEE10getBucketsEv(ptr noundef nonnull align 8 dereferenceable(136) %15)
  store ptr %34, ptr %12, align 8
  %35 = load ptr, ptr %12, align 8
  %36 = getelementptr inbounds %"struct.llvm::detail::DenseMapPair.202", ptr %35, i64 4
  store ptr %36, ptr %13, align 8
  br label %37

37:                                               ; preds = %66, %30
  %38 = load ptr, ptr %12, align 8
  %39 = load ptr, ptr %13, align 8
  %40 = icmp ne ptr %38, %39
  br i1 %40, label %41, label %69

41:                                               ; preds = %37
  %42 = load ptr, ptr %12, align 8
  %43 = call noundef nonnull align 8 dereferenceable(8) ptr @_ZN4llvm6detail12DenseMapPairIlN12_GLOBAL__N_17ArgPartEE8getFirstEv(ptr noundef nonnull align 8 dereferenceable(32) %42)
  %44 = call noundef zeroext i1 @_ZN4llvm12DenseMapInfoIlvE7isEqualERKlS3_(ptr noundef nonnull align 8 dereferenceable(8) %43, ptr noundef nonnull align 8 dereferenceable(8) %10)
  br i1 %44, label %63, label %45

45:                                               ; preds = %41
  %46 = load ptr, ptr %12, align 8
  %47 = call noundef nonnull align 8 dereferenceable(8) ptr @_ZN4llvm6detail12DenseMapPairIlN12_GLOBAL__N_17ArgPartEE8getFirstEv(ptr noundef nonnull align 8 dereferenceable(32) %46)
  %48 = call noundef zeroext i1 @_ZN4llvm12DenseMapInfoIlvE7isEqualERKlS3_(ptr noundef nonnull align 8 dereferenceable(8) %47, ptr noundef nonnull align 8 dereferenceable(8) %11)
  br i1 %48, label %63, label %49

49:                                               ; preds = %45
  %50 = load ptr, ptr %9, align 8
  %51 = call noundef nonnull align 8 dereferenceable(8) ptr @_ZN4llvm6detail12DenseMapPairIlN12_GLOBAL__N_17ArgPartEE8getFirstEv(ptr noundef nonnull align 8 dereferenceable(32) %50)
  %52 = load ptr, ptr %12, align 8
  %53 = call noundef nonnull align 8 dereferenceable(8) ptr @_ZN4llvm6detail12DenseMapPairIlN12_GLOBAL__N_17ArgPartEE8getFirstEv(ptr noundef nonnull align 8 dereferenceable(32) %52)
  %54 = load i64, ptr %53, align 8
  store i64 %54, ptr %51, align 8
  %55 = load ptr, ptr %9, align 8
  %56 = call noundef nonnull align 8 dereferenceable(24) ptr @_ZN4llvm6detail12DenseMapPairIlN12_GLOBAL__N_17ArgPartEE9getSecondEv(ptr noundef nonnull align 8 dereferenceable(32) %55)
  %57 = load ptr, ptr %12, align 8
  %58 = call noundef nonnull align 8 dereferenceable(24) ptr @_ZN4llvm6detail12DenseMapPairIlN12_GLOBAL__N_17ArgPartEE9getSecondEv(ptr noundef nonnull align 8 dereferenceable(32) %57)
  call void @llvm.memcpy.p0.p0.i64(ptr align 8 %56, ptr align 8 %58, i64 24, i1 false)
  %59 = load ptr, ptr %9, align 8
  %60 = getelementptr inbounds %"struct.llvm::detail::DenseMapPair.202", ptr %59, i32 1
  store ptr %60, ptr %9, align 8
  %61 = load ptr, ptr %12, align 8
  %62 = call noundef nonnull align 8 dereferenceable(24) ptr @_ZN4llvm6detail12DenseMapPairIlN12_GLOBAL__N_17ArgPartEE9getSecondEv(ptr noundef nonnull align 8 dereferenceable(32) %61)
  br label %63

63:                                               ; preds = %49, %45, %41
  %64 = load ptr, ptr %12, align 8
  %65 = call noundef nonnull align 8 dereferenceable(8) ptr @_ZN4llvm6detail12DenseMapPairIlN12_GLOBAL__N_17ArgPartEE8getFirstEv(ptr noundef nonnull align 8 dereferenceable(32) %64)
  br label %66

66:                                               ; preds = %63
  %67 = load ptr, ptr %12, align 8
  %68 = getelementptr inbounds %"struct.llvm::detail::DenseMapPair.202", ptr %67, i32 1
  store ptr %68, ptr %12, align 8
  br label %37, !llvm.loop !17

69:                                               ; preds = %37
  %70 = load i32, ptr %4, align 4
  %71 = icmp ugt i32 %70, 4
  br i1 %71, label %72, label %83

72:                                               ; preds = %69
  %73 = load i32, ptr %15, align 8
  %74 = and i32 %73, -2
  %75 = or i32 %74, 0
  store i32 %75, ptr %15, align 8
  %76 = call noundef ptr @_ZN4llvm13SmallDenseMapIlN12_GLOBAL__N_17ArgPartELj4ENS_12DenseMapInfoIlvEENS_6detail12DenseMapPairIlS2_EEE11getLargeRepEv(ptr noundef nonnull align 8 dereferenceable(136) %15)
  %77 = load i32, ptr %4, align 4
  %78 = call { ptr, i32 } @_ZN4llvm13SmallDenseMapIlN12_GLOBAL__N_17ArgPartELj4ENS_12DenseMapInfoIlvEENS_6detail12DenseMapPairIlS2_EEE15allocateBucketsEj(ptr noundef nonnull align 8 dereferenceable(136) %15, i32 noundef %77)
  %79 = getelementptr inbounds nuw { ptr, i32 }, ptr %76, i32 0, i32 0
  %80 = extractvalue { ptr, i32 } %78, 0
  store ptr %80, ptr %79, align 8
  %81 = getelementptr inbounds nuw { ptr, i32 }, ptr %76, i32 0, i32 1
  %82 = extractvalue { ptr, i32 } %78, 1
  store i32 %82, ptr %81, align 8
  br label %83

83:                                               ; preds = %72, %69
  %84 = load ptr, ptr %8, align 8
  %85 = load ptr, ptr %9, align 8
  call void @_ZN4llvm12DenseMapBaseINS_13SmallDenseMapIlN12_GLOBAL__N_17ArgPartELj4ENS_12DenseMapInfoIlvEENS_6detail12DenseMapPairIlS3_EEEElS3_S5_S8_E18moveFromOldBucketsEPS8_SB_(ptr noundef nonnull align 1 dereferenceable(1) %15, ptr noundef %84, ptr noundef %85)
  br label %118

86:                                               ; preds = %26
  %87 = call noundef ptr @_ZN4llvm13SmallDenseMapIlN12_GLOBAL__N_17ArgPartELj4ENS_12DenseMapInfoIlvEENS_6detail12DenseMapPairIlS2_EEE11getLargeRepEv(ptr noundef nonnull align 8 dereferenceable(136) %15)
  call void @llvm.memcpy.p0.p0.i64(ptr align 8 %14, ptr align 8 %87, i64 16, i1 false)
  %88 = call noundef ptr @_ZN4llvm13SmallDenseMapIlN12_GLOBAL__N_17ArgPartELj4ENS_12DenseMapInfoIlvEENS_6detail12DenseMapPairIlS2_EEE11getLargeRepEv(ptr noundef nonnull align 8 dereferenceable(136) %15)
  %89 = load i32, ptr %4, align 4
  %90 = icmp ule i32 %89, 4
  br i1 %90, label %91, label %95

91:                                               ; preds = %86
  %92 = load i32, ptr %15, align 8
  %93 = and i32 %92, -2
  %94 = or i32 %93, 1
  store i32 %94, ptr %15, align 8
  br label %103

95:                                               ; preds = %86
  %96 = call noundef ptr @_ZN4llvm13SmallDenseMapIlN12_GLOBAL__N_17ArgPartELj4ENS_12DenseMapInfoIlvEENS_6detail12DenseMapPairIlS2_EEE11getLargeRepEv(ptr noundef nonnull align 8 dereferenceable(136) %15)
  %97 = load i32, ptr %4, align 4
  %98 = call { ptr, i32 } @_ZN4llvm13SmallDenseMapIlN12_GLOBAL__N_17ArgPartELj4ENS_12DenseMapInfoIlvEENS_6detail12DenseMapPairIlS2_EEE15allocateBucketsEj(ptr noundef nonnull align 8 dereferenceable(136) %15, i32 noundef %97)
  %99 = getelementptr inbounds nuw { ptr, i32 }, ptr %96, i32 0, i32 0
  %100 = extractvalue { ptr, i32 } %98, 0
  store ptr %100, ptr %99, align 8
  %101 = getelementptr inbounds nuw { ptr, i32 }, ptr %96, i32 0, i32 1
  %102 = extractvalue { ptr, i32 } %98, 1
  store i32 %102, ptr %101, align 8
  br label %103

103:                                              ; preds = %95, %91
  %104 = getelementptr inbounds nuw %"struct.llvm::SmallDenseMap<long, (anonymous namespace)::ArgPart>::LargeRep", ptr %14, i32 0, i32 0
  %105 = load ptr, ptr %104, align 8
  %106 = getelementptr inbounds nuw %"struct.llvm::SmallDenseMap<long, (anonymous namespace)::ArgPart>::LargeRep", ptr %14, i32 0, i32 0
  %107 = load ptr, ptr %106, align 8
  %108 = getelementptr inbounds nuw %"struct.llvm::SmallDenseMap<long, (anonymous namespace)::ArgPart>::LargeRep", ptr %14, i32 0, i32 1
  %109 = load i32, ptr %108, align 8
  %110 = zext i32 %109 to i64
  %111 = getelementptr inbounds %"struct.llvm::detail::DenseMapPair.202", ptr %107, i64 %110
  call void @_ZN4llvm12DenseMapBaseINS_13SmallDenseMapIlN12_GLOBAL__N_17ArgPartELj4ENS_12DenseMapInfoIlvEENS_6detail12DenseMapPairIlS3_EEEElS3_S5_S8_E18moveFromOldBucketsEPS8_SB_(ptr noundef nonnull align 1 dereferenceable(1) %15, ptr noundef %105, ptr noundef %111)
  %112 = getelementptr inbounds nuw %"struct.llvm::SmallDenseMap<long, (anonymous namespace)::ArgPart>::LargeRep", ptr %14, i32 0, i32 0
  %113 = load ptr, ptr %112, align 8
  %114 = getelementptr inbounds nuw %"struct.llvm::SmallDenseMap<long, (anonymous namespace)::ArgPart>::LargeRep", ptr %14, i32 0, i32 1
  %115 = load i32, ptr %114, align 8
  %116 = zext i32 %115 to i64
  %117 = mul i64 32, %116
  call void @_ZN4llvm17deallocate_bufferEPvmm(ptr noundef %113, i64 noundef %117, i64 noundef 8)
  br label %118

118:                                              ; preds = %103, %83
  ret void
}

; Function Attrs: mustprogress nounwind uwtable
define internal void @_ZN4llvm12DenseMapBaseINS_13SmallDenseMapIlN12_GLOBAL__N_17ArgPartELj4ENS_12DenseMapInfoIlvEENS_6detail12DenseMapPairIlS3_EEEElS3_S5_S8_E4growEj(ptr noundef nonnull align 1 dereferenceable(1) %0, i32 noundef %1) #1 align 2 {
  %3 = alloca ptr, align 8
  %4 = alloca i32, align 4
  store ptr %0, ptr %3, align 8
  store i32 %1, ptr %4, align 4
  %5 = load ptr, ptr %3, align 8
  %6 = load i32, ptr %4, align 4
  call void @_ZN4llvm13SmallDenseMapIlN12_GLOBAL__N_17ArgPartELj4ENS_12DenseMapInfoIlvEENS_6detail12DenseMapPairIlS2_EEE4growEj(ptr noundef nonnull align 8 dereferenceable(136) %5, i32 noundef %6)
  ret void
}