; Function Attrs: mustprogress nounwind uwtable
define internal fastcc void @_ZN4llvm12DenseMapBaseINS_13SmallDenseMapIlN12_GLOBAL__N_17ArgPartELj4ENS_12DenseMapInfoIlvEENS_6detail12DenseMapPairIlS3_EEEElS3_S5_S8_E4growEj(ptr noundef nonnull align 1 dereferenceable(1) %0, i32 noundef %1) unnamed_addr #0 align 2 {
  %3 = alloca %"struct.llvm::AlignedCharArrayUnion.208", align 8
  call void @llvm.lifetime.start.p0(i64 128, ptr nonnull %3)
  %4 = icmp ugt i32 %1, 4
  br i1 %4, label %5, label %20

5:                                                ; preds = %2
  %6 = add i32 %1, -1
  %7 = zext i32 %6 to i64
  %8 = lshr i64 %7, 1
  %9 = or i64 %8, %7
  %10 = lshr i64 %9, 2
  %11 = or i64 %10, %9
  %12 = lshr i64 %11, 4
  %13 = or i64 %12, %11
  %14 = lshr i64 %13, 8
  %15 = or i64 %14, %13
  %16 = lshr i64 %15, 16
  %17 = or i64 %16, %15
  %18 = trunc nuw i64 %17 to i32
  %19 = add i32 %18, 1
  %.sroa.speculated.i = tail call i32 @llvm.umax.i32(i32 %19, i32 64)
  br label %20

20:                                               ; preds = %5, %2
  %.0.i = phi i32 [ %.sroa.speculated.i, %5 ], [ %1, %2 ]
  %21 = load i32, ptr %0, align 8
  %22 = and i32 %21, 1
  %.not.i = icmp eq i32 %22, 0
  %23 = getelementptr inbounds nuw i8, ptr %0, i64 8
  br i1 %.not.i, label %40, label %.preheader

.preheader:                                       ; preds = %20, %29
  %.02538.i = phi ptr [ %.1.i, %29 ], [ %3, %20 ]
  %.026.idx37.i = phi i64 [ %.026.add.i, %29 ], [ 0, %20 ]
  %.026.ptr39.i = getelementptr inbounds i8, ptr %23, i64 %.026.idx37.i
  %24 = load i64, ptr %.026.ptr39.i, align 8
  %switch.i = icmp sgt i64 %24, 9223372036854775805
  br i1 %switch.i, label %29, label %25

25:                                               ; preds = %.preheader
  store i64 %24, ptr %.02538.i, align 8
  %26 = getelementptr inbounds nuw i8, ptr %.02538.i, i64 8
  %27 = getelementptr inbounds nuw i8, ptr %.026.ptr39.i, i64 8
  call void @llvm.memcpy.p0.p0.i64(ptr noundef nonnull align 8 dereferenceable(24) %26, ptr noundef nonnull align 8 dereferenceable(24) %27, i64 24, i1 false)
  %28 = getelementptr inbounds i8, ptr %.02538.i, i64 32
  br label %29

29:                                               ; preds = %25, %.preheader
  %.1.i = phi ptr [ %28, %25 ], [ %.02538.i, %.preheader ]
  %.026.add.i = add nuw nsw i64 %.026.idx37.i, 32
  %.not29.i = icmp eq i64 %.026.add.i, 128
  br i1 %.not29.i, label %30, label %.preheader, !llvm.loop !112

30:                                               ; preds = %29
  %31 = icmp ugt i32 %.0.i, 4
  br i1 %31, label %32, label %39

32:                                               ; preds = %30
  %33 = load i32, ptr %0, align 8
  %34 = and i32 %33, -2
  store i32 %34, ptr %0, align 8
  %35 = zext i32 %.0.i to i64
  %36 = shl nuw nsw i64 %35, 5
  %37 = tail call noalias noundef nonnull ptr @_ZN4llvm15allocate_bufferEmm(i64 noundef %36, i64 noundef 8) #17
  store ptr %37, ptr %23, align 8
  %38 = getelementptr inbounds i8, ptr %0, i64 16
  store i32 %.0.i, ptr %38, align 8
  br label %39

39:                                               ; preds = %32, %30
  call fastcc void @_ZN4llvm12DenseMapBaseINS_13SmallDenseMapIlN12_GLOBAL__N_17ArgPartELj4ENS_12DenseMapInfoIlvEENS_6detail12DenseMapPairIlS3_EEEElS3_S5_S8_E18moveFromOldBucketsEPS8_SB_(ptr noundef nonnull align 1 dereferenceable(1) %0, ptr noundef nonnull %3, ptr noundef %.1.i)
  br label %_ZN4llvm13SmallDenseMapIlN12_GLOBAL__N_17ArgPartELj4ENS_12DenseMapInfoIlvEENS_6detail12DenseMapPairIlS2_EEE4growEj.exit

40:                                               ; preds = %20
  %.sroa.0.0.copyload.i = load ptr, ptr %23, align 8
  %.sroa.4.0..sroa_idx.i = getelementptr inbounds i8, ptr %0, i64 16
  %.sroa.4.0.copyload.i = load i32, ptr %.sroa.4.0..sroa_idx.i, align 8
  %41 = icmp ult i32 %.0.i, 5
  br i1 %41, label %42, label %44

42:                                               ; preds = %40
  %43 = or disjoint i32 %21, 1
  store i32 %43, ptr %0, align 8
  br label %48

44:                                               ; preds = %40
  %45 = zext i32 %.0.i to i64
  %46 = shl nuw nsw i64 %45, 5
  %47 = tail call noalias noundef nonnull ptr @_ZN4llvm15allocate_bufferEmm(i64 noundef %46, i64 noundef 8) #17
  store ptr %47, ptr %23, align 8
  store i32 %.0.i, ptr %.sroa.4.0..sroa_idx.i, align 8
  br label %48

48:                                               ; preds = %44, %42
  %49 = zext i32 %.sroa.4.0.copyload.i to i64
  %50 = getelementptr inbounds %"struct.llvm::detail::DenseMapPair.202", ptr %.sroa.0.0.copyload.i, i64 %49
  tail call fastcc void @_ZN4llvm12DenseMapBaseINS_13SmallDenseMapIlN12_GLOBAL__N_17ArgPartELj4ENS_12DenseMapInfoIlvEENS_6detail12DenseMapPairIlS3_EEEElS3_S5_S8_E18moveFromOldBucketsEPS8_SB_(ptr noundef nonnull align 1 dereferenceable(1) %0, ptr noundef %.sroa.0.0.copyload.i, ptr noundef %50)
  %51 = shl nuw nsw i64 %49, 5
  tail call void @_ZN4llvm17deallocate_bufferEPvmm(ptr noundef %.sroa.0.0.copyload.i, i64 noundef %51, i64 noundef 8) #17
  br label %_ZN4llvm13SmallDenseMapIlN12_GLOBAL__N_17ArgPartELj4ENS_12DenseMapInfoIlvEENS_6detail12DenseMapPairIlS2_EEE4growEj.exit

_ZN4llvm13SmallDenseMapIlN12_GLOBAL__N_17ArgPartELj4ENS_12DenseMapInfoIlvEENS_6detail12DenseMapPairIlS2_EEE4growEj.exit: ; preds = %39, %48
  call void @llvm.lifetime.end.p0(i64 128, ptr nonnull %3)
  ret void
}